; Function Attrs: mustprogress nounwind uwtable
define dso_local noundef zeroext i1 @_ZN4llvm20UnrolledInstAnalyzer12visitPHINodeERNS_7PHINodeE(ptr noundef nonnull align 8 dereferenceable(56) %0, ptr noundef nonnull align 8 dereferenceable(76) %1) local_unnamed_addr #0 align 2 {
  %3 = tail call noundef zeroext i1 @_ZN4llvm20UnrolledInstAnalyzer20simplifyInstWithSCEVEPNS_11InstructionE(ptr noundef nonnull align 8 dereferenceable(56) %0, ptr noundef nonnull %1)
  br i1 %3, label %11, label %4

4:                                                ; preds = %2
  %5 = getelementptr inbounds i8, ptr %1, i64 40
  %6 = load ptr, ptr %5, align 8
  %7 = getelementptr inbounds nuw i8, ptr %0, i64 48
  %8 = load ptr, ptr %7, align 8
  %9 = tail call noundef ptr @_ZNK4llvm8LoopBaseINS_10BasicBlockENS_4LoopEE9getHeaderEv(ptr noundef nonnull align 8 dereferenceable(152) %8) #6
  %10 = icmp eq ptr %6, %9
  br label %11

11:                                               ; preds = %2, %4
  %.0 = phi i1 [ %10, %4 ], [ true, %2 ]
  ret i1 %.0
}